#include <math.h>
#include <stdio.h>
#include <stdlib.h>
#include <string.h>

void main()
{
	int n,i,j,k,max=0,smax=0,tmax=0,id[3]={0},a,b,c;
   struct student
{
int No;
int yuwen;
int math;
}stu[100000];
scanf("%d",&n);
for(i=0;i<n;i++)
{
	scanf("%d",&stu[i].No);
    scanf("%d",&stu[i].yuwen);
	scanf("%d",&stu[i].math);
}
for(i=0;i<n;i++)
{

		if(max<stu[i].yuwen+stu[i].math)
                {
			max=stu[i].yuwen+stu[i].math;
		id[0]=stu[i].No;}
}
for(i=0;i<n;i++)
{
	if(smax<stu[i].yuwen+stu[i].math&&i!=id[0]-1)
		{smax=stu[i].yuwen+stu[i].math;
	   id[1]=stu[i].No;}
}

for(i=0;i<n;i++)
{
	if(tmax<stu[i].yuwen+stu[i].math&&i!=id[0]-1&&i!=id[1]-1)
		{tmax=stu[i].yuwen+stu[i].math;
	   id[2]=stu[i].No;}
}

a=id[0];
b=id[1];
c=id[2];




printf("%d %d\n",a,max);
printf("%d %d\n",b,smax);
printf("%d %d\n",c,tmax);

}