; ModuleID = '14/863.c'
source_filename = "14/863.c"
target datalayout = "e-m:e-p270:32:32-p271:32:32-p272:64:64-i64:64-f80:128-n8:16:32:64-S128"
target triple = "x86_64-pc-linux-gnu"

%struct.student = type { i32, i32, i32 }

@.str = private unnamed_addr constant [3 x i8] c"%d\00", align 1
@.str.1 = private unnamed_addr constant [7 x i8] c"%d %d\0A\00", align 1

; Function Attrs: noinline nounwind uwtable
define dso_local void @main() #0 {
  %1 = alloca i32, align 4
  %2 = alloca i32, align 4
  %3 = alloca i32, align 4
  %4 = alloca i32, align 4
  %5 = alloca i32, align 4
  %6 = alloca i32, align 4
  %7 = alloca i32, align 4
  %8 = alloca [3 x i32], align 4
  %9 = alloca i32, align 4
  %10 = alloca i32, align 4
  %11 = alloca i32, align 4
  %12 = alloca [100000 x %struct.student], align 16
  store i32 0, i32* %5, align 4
  store i32 0, i32* %6, align 4
  store i32 0, i32* %7, align 4
  %13 = bitcast [3 x i32]* %8 to i8*
  call void @llvm.memset.p0i8.i64(i8* align 4 %13, i8 0, i64 12, i1 false)
  %14 = call i32 (i8*, ...) @__isoc99_scanf(i8* getelementptr inbounds ([3 x i8], [3 x i8]* @.str, i64 0, i64 0), i32* %1)
  store i32 0, i32* %2, align 4
  br label %15

15:                                               ; preds = %35, %0
  %16 = load i32, i32* %2, align 4
  %17 = load i32, i32* %1, align 4
  %18 = icmp slt i32 %16, %17
  br i1 %18, label %19, label %38

19:                                               ; preds = %15
  %20 = load i32, i32* %2, align 4
  %21 = sext i32 %20 to i64
  %22 = getelementptr inbounds [100000 x %struct.student], [100000 x %struct.student]* %12, i64 0, i64 %21
  %23 = getelementptr inbounds %struct.student, %struct.student* %22, i32 0, i32 0
  %24 = call i32 (i8*, ...) @__isoc99_scanf(i8* getelementptr inbounds ([3 x i8], [3 x i8]* @.str, i64 0, i64 0), i32* %23)
  %25 = load i32, i32* %2, align 4
  %26 = sext i32 %25 to i64
  %27 = getelementptr inbounds [100000 x %struct.student], [100000 x %struct.student]* %12, i64 0, i64 %26
  %28 = getelementptr inbounds %struct.student, %struct.student* %27, i32 0, i32 1
  %29 = call i32 (i8*, ...) @__isoc99_scanf(i8* getelementptr inbounds ([3 x i8], [3 x i8]* @.str, i64 0, i64 0), i32* %28)
  %30 = load i32, i32* %2, align 4
  %31 = sext i32 %30 to i64
  %32 = getelementptr inbounds [100000 x %struct.student], [100000 x %struct.student]* %12, i64 0, i64 %31
  %33 = getelementptr inbounds %struct.student, %struct.student* %32, i32 0, i32 2
  %34 = call i32 (i8*, ...) @__isoc99_scanf(i8* getelementptr inbounds ([3 x i8], [3 x i8]* @.str, i64 0, i64 0), i32* %33)
  br label %35

35:                                               ; preds = %19
  %36 = load i32, i32* %2, align 4
  %37 = add nsw i32 %36, 1
  store i32 %37, i32* %2, align 4
  br label %15

38:                                               ; preds = %15
  store i32 0, i32* %2, align 4
  br label %39

39:                                               ; preds = %76, %38
  %40 = load i32, i32* %2, align 4
  %41 = load i32, i32* %1, align 4
  %42 = icmp slt i32 %40, %41
  br i1 %42, label %43, label %79

43:                                               ; preds = %39
  %44 = load i32, i32* %5, align 4
  %45 = load i32, i32* %2, align 4
  %46 = sext i32 %45 to i64
  %47 = getelementptr inbounds [100000 x %struct.student], [100000 x %struct.student]* %12, i64 0, i64 %46
  %48 = getelementptr inbounds %struct.student, %struct.student* %47, i32 0, i32 1
  %49 = load i32, i32* %48, align 4
  %50 = load i32, i32* %2, align 4
  %51 = sext i32 %50 to i64
  %52 = getelementptr inbounds [100000 x %struct.student], [100000 x %struct.student]* %12, i64 0, i64 %51
  %53 = getelementptr inbounds %struct.student, %struct.student* %52, i32 0, i32 2
  %54 = load i32, i32* %53, align 4
  %55 = add nsw i32 %49, %54
  %56 = icmp slt i32 %44, %55
  br i1 %56, label %57, label %75

57:                                               ; preds = %43
  %58 = load i32, i32* %2, align 4
  %59 = sext i32 %58 to i64
  %60 = getelementptr inbounds [100000 x %struct.student], [100000 x %struct.student]* %12, i64 0, i64 %59
  %61 = getelementptr inbounds %struct.student, %struct.student* %60, i32 0, i32 1
  %62 = load i32, i32* %61, align 4
  %63 = load i32, i32* %2, align 4
  %64 = sext i32 %63 to i64
  %65 = getelementptr inbounds [100000 x %struct.student], [100000 x %struct.student]* %12, i64 0, i64 %64
  %66 = getelementptr inbounds %struct.student, %struct.student* %65, i32 0, i32 2
  %67 = load i32, i32* %66, align 4
  %68 = add nsw i32 %62, %67
  store i32 %68, i32* %5, align 4
  %69 = load i32, i32* %2, align 4
  %70 = sext i32 %69 to i64
  %71 = getelementptr inbounds [100000 x %struct.student], [100000 x %struct.student]* %12, i64 0, i64 %70
  %72 = getelementptr inbounds %struct.student, %struct.student* %71, i32 0, i32 0
  %73 = load i32, i32* %72, align 4
  %74 = getelementptr inbounds [3 x i32], [3 x i32]* %8, i64 0, i64 0
  store i32 %73, i32* %74, align 4
  br label %75

75:                                               ; preds = %57, %43
  br label %76

76:                                               ; preds = %75
  %77 = load i32, i32* %2, align 4
  %78 = add nsw i32 %77, 1
  store i32 %78, i32* %2, align 4
  br label %39

79:                                               ; preds = %39
  store i32 0, i32* %2, align 4
  br label %80

80:                                               ; preds = %123, %79
  %81 = load i32, i32* %2, align 4
  %82 = load i32, i32* %1, align 4
  %83 = icmp slt i32 %81, %82
  br i1 %83, label %84, label %126

84:                                               ; preds = %80
  %85 = load i32, i32* %6, align 4
  %86 = load i32, i32* %2, align 4
  %87 = sext i32 %86 to i64
  %88 = getelementptr inbounds [100000 x %struct.student], [100000 x %struct.student]* %12, i64 0, i64 %87
  %89 = getelementptr inbounds %struct.student, %struct.student* %88, i32 0, i32 1
  %90 = load i32, i32* %89, align 4
  %91 = load i32, i32* %2, align 4
  %92 = sext i32 %91 to i64
  %93 = getelementptr inbounds [100000 x %struct.student], [100000 x %struct.student]* %12, i64 0, i64 %92
  %94 = getelementptr inbounds %struct.student, %struct.student* %93, i32 0, i32 2
  %95 = load i32, i32* %94, align 4
  %96 = add nsw i32 %90, %95
  %97 = icmp slt i32 %85, %96
  br i1 %97, label %98, label %122

98:                                               ; preds = %84
  %99 = load i32, i32* %2, align 4
  %100 = getelementptr inbounds [3 x i32], [3 x i32]* %8, i64 0, i64 0
  %101 = load i32, i32* %100, align 4
  %102 = sub nsw i32 %101, 1
  %103 = icmp ne i32 %99, %102
  br i1 %103, label %104, label %122

104:                                              ; preds = %98
  %105 = load i32, i32* %2, align 4
  %106 = sext i32 %105 to i64
  %107 = getelementptr inbounds [100000 x %struct.student], [100000 x %struct.student]* %12, i64 0, i64 %106
  %108 = getelementptr inbounds %struct.student, %struct.student* %107, i32 0, i32 1
  %109 = load i32, i32* %108, align 4
  %110 = load i32, i32* %2, align 4
  %111 = sext i32 %110 to i64
  %112 = getelementptr inbounds [100000 x %struct.student], [100000 x %struct.student]* %12, i64 0, i64 %111
  %113 = getelementptr inbounds %struct.student, %struct.student* %112, i32 0, i32 2
  %114 = load i32, i32* %113, align 4
  %115 = add nsw i32 %109, %114
  store i32 %115, i32* %6, align 4
  %116 = load i32, i32* %2, align 4
  %117 = sext i32 %116 to i64
  %118 = getelementptr inbounds [100000 x %struct.student], [100000 x %struct.student]* %12, i64 0, i64 %117
  %119 = getelementptr inbounds %struct.student, %struct.student* %118, i32 0, i32 0
  %120 = load i32, i32* %119, align 4
  %121 = getelementptr inbounds [3 x i32], [3 x i32]* %8, i64 0, i64 1
  store i32 %120, i32* %121, align 4
  br label %122

122:                                              ; preds = %104, %98, %84
  br label %123

123:                                              ; preds = %122
  %124 = load i32, i32* %2, align 4
  %125 = add nsw i32 %124, 1
  store i32 %125, i32* %2, align 4
  br label %80

126:                                              ; preds = %80
  store i32 0, i32* %2, align 4
  br label %127

127:                                              ; preds = %176, %126
  %128 = load i32, i32* %2, align 4
  %129 = load i32, i32* %1, align 4
  %130 = icmp slt i32 %128, %129
  br i1 %130, label %131, label %179

131:                                              ; preds = %127
  %132 = load i32, i32* %7, align 4
  %133 = load i32, i32* %2, align 4
  %134 = sext i32 %133 to i64
  %135 = getelementptr inbounds [100000 x %struct.student], [100000 x %struct.student]* %12, i64 0, i64 %134
  %136 = getelementptr inbounds %struct.student, %struct.student* %135, i32 0, i32 1
  %137 = load i32, i32* %136, align 4
  %138 = load i32, i32* %2, align 4
  %139 = sext i32 %138 to i64
  %140 = getelementptr inbounds [100000 x %struct.student], [100000 x %struct.student]* %12, i64 0, i64 %139
  %141 = getelementptr inbounds %struct.student, %struct.student* %140, i32 0, i32 2
  %142 = load i32, i32* %141, align 4
  %143 = add nsw i32 %137, %142
  %144 = icmp slt i32 %132, %143
  br i1 %144, label %145, label %175

145:                                              ; preds = %131
  %146 = load i32, i32* %2, align 4
  %147 = getelementptr inbounds [3 x i32], [3 x i32]* %8, i64 0, i64 0
  %148 = load i32, i32* %147, align 4
  %149 = sub nsw i32 %148, 1
  %150 = icmp ne i32 %146, %149
  br i1 %150, label %151, label %175

151:                                              ; preds = %145
  %152 = load i32, i32* %2, align 4
  %153 = getelementptr inbounds [3 x i32], [3 x i32]* %8, i64 0, i64 1
  %154 = load i32, i32* %153, align 4
  %155 = sub nsw i32 %154, 1
  %156 = icmp ne i32 %152, %155
  br i1 %156, label %157, label %175

157:                                              ; preds = %151
  %158 = load i32, i32* %2, align 4
  %159 = sext i32 %158 to i64
  %160 = getelementptr inbounds [100000 x %struct.student], [100000 x %struct.student]* %12, i64 0, i64 %159
  %161 = getelementptr inbounds %struct.student, %struct.student* %160, i32 0, i32 1
  %162 = load i32, i32* %161, align 4
  %163 = load i32, i32* %2, align 4
  %164 = sext i32 %163 to i64
  %165 = getelementptr inbounds [100000 x %struct.student], [100000 x %struct.student]* %12, i64 0, i64 %164
  %166 = getelementptr inbounds %struct.student, %struct.student* %165, i32 0, i32 2
  %167 = load i32, i32* %166, align 4
  %168 = add nsw i32 %162, %167
  store i32 %168, i32* %7, align 4
  %169 = load i32, i32* %2, align 4
  %170 = sext i32 %169 to i64
  %171 = getelementptr inbounds [100000 x %struct.student], [100000 x %struct.student]* %12, i64 0, i64 %170
  %172 = getelementptr inbounds %struct.student, %struct.student* %171, i32 0, i32 0
  %173 = load i32, i32* %172, align 4
  %174 = getelementptr inbounds [3 x i32], [3 x i32]* %8, i64 0, i64 2
  store i32 %173, i32* %174, align 4
  br label %175

175:                                              ; preds = %157, %151, %145, %131
  br label %176

176:                                              ; preds = %175
  %177 = load i32, i32* %2, align 4
  %178 = add nsw i32 %177, 1
  store i32 %178, i32* %2, align 4
  br label %127

179:                                              ; preds = %127
  %180 = getelementptr inbounds [3 x i32], [3 x i32]* %8, i64 0, i64 0
  %181 = load i32, i32* %180, align 4
  store i32 %181, i32* %9, align 4
  %182 = getelementptr inbounds [3 x i32], [3 x i32]* %8, i64 0, i64 1
  %183 = load i32, i32* %182, align 4
  store i32 %183, i32* %10, align 4
  %184 = getelementptr inbounds [3 x i32], [3 x i32]* %8, i64 0, i64 2
  %185 = load i32, i32* %184, align 4
  store i32 %185, i32* %11, align 4
  %186 = load i32, i32* %9, align 4
  %187 = load i32, i32* %5, align 4
  %188 = call i32 (i8*, ...) @printf(i8* getelementptr inbounds ([7 x i8], [7 x i8]* @.str.1, i64 0, i64 0), i32 %186, i32 %187)
  %189 = load i32, i32* %10, align 4
  %190 = load i32, i32* %6, align 4
  %191 = call i32 (i8*, ...) @printf(i8* getelementptr inbounds ([7 x i8], [7 x i8]* @.str.1, i64 0, i64 0), i32 %189, i32 %190)
  %192 = load i32, i32* %11, align 4
  %193 = load i32, i32* %7, align 4
  %194 = call i32 (i8*, ...) @printf(i8* getelementptr inbounds ([7 x i8], [7 x i8]* @.str.1, i64 0, i64 0), i32 %192, i32 %193)
  ret void
}

; Function Attrs: argmemonly nounwind willreturn
declare void @llvm.memset.p0i8.i64(i8* nocapture writeonly, i8, i64, i1 immarg) #1

declare dso_local i32 @__isoc99_scanf(i8*, ...) #2

declare dso_local i32 @printf(i8*, ...) #2


!llvm.module.flags = !{!0}
!llvm.ident = !{!1}

!0 = !{i32 1, !"wchar_size", i32 4}
!1 = !{!"clang version 10.0.0-4ubuntu1 "}
